target datalayout = "e-m:e-p270:32:32-p271:32:32-p272:64:64-i64:64-i128:128-f80:128-n8:16:32:64-S128"
target triple = "x86_64-pc-linux-gnu"

%struct.ident_t = type { i32, i32, i32, i32, ptr }

@1 = private unnamed_addr constant %struct.ident_t { i32 0, i32 514, i32 0, i32 22, ptr @0 }, align 8
@2 = private unnamed_addr constant %struct.ident_t { i32 0, i32 66, i32 0, i32 22, ptr @0 }, align 8

; Function Attrs: inlinehint nounwind uwtable
define internal i32 @extractBit(i32 noundef %0, i64 noundef %1) #7 {
  %3 = alloca i32, align 4
  %4 = alloca i64, align 8
  store i32 %0, ptr %3, align 4, !tbaa !8
  store i64 %1, ptr %4, align 8, !tbaa !4
  %5 = load i64, ptr %4, align 8, !tbaa !4
  %6 = load i32, ptr %3, align 4, !tbaa !8
  %7 = zext i32 %6 to i64
  %8 = shl i64 1, %7
  %9 = and i64 %5, %8
  %10 = load i32, ptr %3, align 4, !tbaa !8
  %11 = zext i32 %10 to i64
  %12 = ashr i64 %9, %11
  %13 = trunc i64 %12 to i32
  ret i32 %13
}

; Function Attrs: inlinehint nounwind uwtable
define internal i64 @flipBit(i64 noundef %0, i32 noundef %1) #7 {
  %3 = alloca i64, align 8
  %4 = alloca i32, align 4
  store i64 %0, ptr %3, align 8, !tbaa !4
  store i32 %1, ptr %4, align 4, !tbaa !8
  %5 = load i64, ptr %3, align 8, !tbaa !4
  %6 = load i32, ptr %4, align 4, !tbaa !8
  %7 = zext i32 %6 to i64
  %8 = shl i64 1, %7
  %9 = xor i64 %5, %8
  ret i64 %9
}

; Function Attrs: inlinehint nounwind uwtable
define internal i32 @isOddParity(i64 noundef %0, i32 noundef %1, i32 noundef %2) #7 {
  %4 = alloca i64, align 8
  %5 = alloca i32, align 4
  %6 = alloca i32, align 4
  store i64 %0, ptr %4, align 8, !tbaa !4
  store i32 %1, ptr %5, align 4, !tbaa !8
  store i32 %2, ptr %6, align 4, !tbaa !8
  %7 = load i32, ptr %5, align 4, !tbaa !8
  %8 = load i64, ptr %4, align 8, !tbaa !4
  %9 = call i32 @extractBit(i32 noundef %7, i64 noundef %8)
  %10 = load i32, ptr %6, align 4, !tbaa !8
  %11 = load i64, ptr %4, align 8, !tbaa !4
  %12 = call i32 @extractBit(i32 noundef %10, i64 noundef %11)
  %13 = icmp ne i32 %9, %12
  %14 = zext i1 %13 to i32
  ret i32 %14
}

; Function Attrs: alwaysinline norecurse nounwind uwtable
define internal void @statevec_swapQubitAmpsDistributed.omp_outlined(ptr noalias noundef %0, ptr noalias noundef %1, ptr noundef nonnull align 8 dereferenceable(8) %2, ptr noundef nonnull align 8 dereferenceable(8) %3, ptr noundef nonnull align 4 dereferenceable(4) %4, ptr noundef nonnull align 4 dereferenceable(4) %5, ptr noundef nonnull align 8 dereferenceable(8) %6, ptr noundef nonnull align 8 dereferenceable(8) %7, ptr noundef nonnull align 8 dereferenceable(8) %8, ptr noundef nonnull align 8 dereferenceable(8) %9, ptr noundef nonnull align 8 dereferenceable(8) %10) #2 {
  %12 = alloca ptr, align 8
  %13 = alloca ptr, align 8
  %14 = alloca ptr, align 8
  %15 = alloca ptr, align 8
  %16 = alloca ptr, align 8
  %17 = alloca ptr, align 8
  %18 = alloca ptr, align 8
  %19 = alloca ptr, align 8
  %20 = alloca ptr, align 8
  %21 = alloca ptr, align 8
  %22 = alloca ptr, align 8
  %23 = alloca i64, align 8
  %24 = alloca i64, align 8
  %25 = alloca i64, align 8
  %26 = alloca i64, align 8
  %27 = alloca i64, align 8
  %28 = alloca i64, align 8
  %29 = alloca i64, align 8
  %30 = alloca i64, align 8
  %31 = alloca i64, align 8
  %32 = alloca i64, align 8
  %33 = alloca i32, align 4
  %34 = alloca i64, align 8
  store ptr %0, ptr %12, align 8, !tbaa !19
  store ptr %1, ptr %13, align 8, !tbaa !19
  store ptr %2, ptr %14, align 8, !tbaa !21
  store ptr %3, ptr %15, align 8, !tbaa !21
  store ptr %4, ptr %16, align 8, !tbaa !19
  store ptr %5, ptr %17, align 8, !tbaa !19
  store ptr %6, ptr %18, align 8, !tbaa !21
  store ptr %7, ptr %19, align 8, !tbaa !33
  store ptr %8, ptr %20, align 8, !tbaa !33
  store ptr %9, ptr %21, align 8, !tbaa !33
  store ptr %10, ptr %22, align 8, !tbaa !33
  %35 = load ptr, ptr %14, align 8, !tbaa !21
  %36 = load ptr, ptr %15, align 8, !tbaa !21
  %37 = load ptr, ptr %16, align 8, !tbaa !19
  %38 = load ptr, ptr %17, align 8, !tbaa !19
  %39 = load ptr, ptr %18, align 8, !tbaa !21
  %40 = load ptr, ptr %19, align 8, !tbaa !33
  %41 = load ptr, ptr %20, align 8, !tbaa !33
  %42 = load ptr, ptr %21, align 8, !tbaa !33
  %43 = load ptr, ptr %22, align 8, !tbaa !33
  call void @llvm.lifetime.start.p0(i64 8, ptr %23) #3
  call void @llvm.lifetime.start.p0(i64 8, ptr %24) #3
  call void @llvm.lifetime.start.p0(i64 8, ptr %25) #3
  call void @llvm.lifetime.start.p0(i64 8, ptr %26) #3
  call void @llvm.lifetime.start.p0(i64 8, ptr %27) #3
  %44 = load i64, ptr %35, align 8, !tbaa !4
  store i64 %44, ptr %27, align 8, !tbaa !4
  call void @llvm.lifetime.start.p0(i64 8, ptr %28) #3
  %45 = load i64, ptr %27, align 8, !tbaa !4
  %46 = sub nsw i64 %45, 0
  %47 = sdiv i64 %46, 1
  %48 = sub nsw i64 %47, 1
  store i64 %48, ptr %28, align 8, !tbaa !4
  call void @llvm.lifetime.start.p0(i64 8, ptr %29) #3
  store i64 0, ptr %29, align 8, !tbaa !4
  call void @llvm.lifetime.end.p0(i64 8, ptr %29) #3
  %49 = load i64, ptr %27, align 8, !tbaa !4
  %50 = icmp slt i64 0, %49
  br i1 %50, label %51, label %114

51:                                               ; preds = %11
  call void @llvm.lifetime.start.p0(i64 8, ptr %30) #3
  store i64 0, ptr %30, align 8, !tbaa !4
  call void @llvm.lifetime.start.p0(i64 8, ptr %31) #3
  %52 = load i64, ptr %28, align 8, !tbaa !4
  store i64 %52, ptr %31, align 8, !tbaa !4
  call void @llvm.lifetime.start.p0(i64 8, ptr %32) #3
  store i64 1, ptr %32, align 8, !tbaa !4
  call void @llvm.lifetime.start.p0(i64 4, ptr %33) #3
  store i32 0, ptr %33, align 4, !tbaa !8
  call void @llvm.lifetime.start.p0(i64 8, ptr %34) #3
  %53 = load ptr, ptr %12, align 8
  %54 = load i32, ptr %53, align 4, !tbaa !8
  call void @__kmpc_for_static_init_8(ptr @1, i32 %54, i32 34, ptr %33, ptr %30, ptr %31, ptr %32, i64 1, i64 1)
  %55 = load i64, ptr %31, align 8, !tbaa !4
  %56 = load i64, ptr %28, align 8, !tbaa !4
  %57 = icmp sgt i64 %55, %56
  br i1 %57, label %58, label %60

58:                                               ; preds = %51
  %59 = load i64, ptr %28, align 8, !tbaa !4
  br label %62

60:                                               ; preds = %51
  %61 = load i64, ptr %31, align 8, !tbaa !4
  br label %62

62:                                               ; preds = %60, %58
  %63 = phi i64 [ %59, %58 ], [ %61, %60 ]
  store i64 %63, ptr %31, align 8, !tbaa !4
  %64 = load i64, ptr %30, align 8, !tbaa !4
  store i64 %64, ptr %26, align 8, !tbaa !4
  br label %65

65:                                               ; preds = %107, %62
  %66 = load i64, ptr %26, align 8, !tbaa !4
  %67 = load i64, ptr %31, align 8, !tbaa !4
  %68 = icmp sle i64 %66, %67
  br i1 %68, label %70, label %69

69:                                               ; preds = %65
  br label %110

70:                                               ; preds = %65
  %71 = load i64, ptr %26, align 8, !tbaa !4
  %72 = mul nsw i64 %71, 1
  %73 = add nsw i64 0, %72
  store i64 %73, ptr %34, align 8, !tbaa !4
  %74 = load i64, ptr %36, align 8, !tbaa !4
  %75 = load i64, ptr %34, align 8, !tbaa !4
  %76 = add nsw i64 %74, %75
  store i64 %76, ptr %23, align 8, !tbaa !4
  %77 = load i64, ptr %23, align 8, !tbaa !4
  %78 = load i32, ptr %37, align 4, !tbaa !8
  %79 = load i32, ptr %38, align 4, !tbaa !8
  %80 = call i32 @isOddParity(i64 noundef %77, i32 noundef %78, i32 noundef %79)
  %81 = icmp ne i32 %80, 0
  br i1 %81, label %82, label %105

82:                                               ; preds = %70
  %83 = load i64, ptr %23, align 8, !tbaa !4
  %84 = load i32, ptr %37, align 4, !tbaa !8
  %85 = call i64 @flipBit(i64 noundef %83, i32 noundef %84)
  %86 = load i32, ptr %38, align 4, !tbaa !8
  %87 = call i64 @flipBit(i64 noundef %85, i32 noundef %86)
  store i64 %87, ptr %25, align 8, !tbaa !4
  %88 = load i64, ptr %25, align 8, !tbaa !4
  %89 = load i64, ptr %39, align 8, !tbaa !4
  %90 = sub nsw i64 %88, %89
  store i64 %90, ptr %24, align 8, !tbaa !4
  %91 = load ptr, ptr %41, align 8, !tbaa !25
  %92 = load i64, ptr %24, align 8, !tbaa !4
  %93 = getelementptr inbounds double, ptr %91, i64 %92
  %94 = load double, ptr %93, align 8, !tbaa !10
  %95 = load ptr, ptr %40, align 8, !tbaa !25
  %96 = load i64, ptr %34, align 8, !tbaa !4
  %97 = getelementptr inbounds double, ptr %95, i64 %96
  store double %94, ptr %97, align 8, !tbaa !10
  %98 = load ptr, ptr %43, align 8, !tbaa !25
  %99 = load i64, ptr %24, align 8, !tbaa !4
  %100 = getelementptr inbounds double, ptr %98, i64 %99
  %101 = load double, ptr %100, align 8, !tbaa !10
  %102 = load ptr, ptr %42, align 8, !tbaa !25
  %103 = load i64, ptr %34, align 8, !tbaa !4
  %104 = getelementptr inbounds double, ptr %102, i64 %103
  store double %101, ptr %104, align 8, !tbaa !10
  br label %105

105:                                              ; preds = %82, %70
  br label %106

106:                                              ; preds = %105
  br label %107

107:                                              ; preds = %106
  %108 = load i64, ptr %26, align 8, !tbaa !4
  %109 = add nsw i64 %108, 1
  store i64 %109, ptr %26, align 8, !tbaa !4
  br label %65

110:                                              ; preds = %69
  br label %111

111:                                              ; preds = %110
  %112 = load ptr, ptr %12, align 8
  %113 = load i32, ptr %112, align 4, !tbaa !8
  call void @__kmpc_for_static_fini(ptr @1, i32 %113)
  call void @llvm.lifetime.end.p0(i64 8, ptr %34) #3
  call void @llvm.lifetime.end.p0(i64 4, ptr %33) #3
  call void @llvm.lifetime.end.p0(i64 8, ptr %32) #3
  call void @llvm.lifetime.end.p0(i64 8, ptr %31) #3
  call void @llvm.lifetime.end.p0(i64 8, ptr %30) #3
  br label %114

114:                                              ; preds = %111, %11
  call void @llvm.lifetime.end.p0(i64 8, ptr %28) #3
  call void @llvm.lifetime.end.p0(i64 8, ptr %27) #3
  call void @llvm.lifetime.end.p0(i64 8, ptr %26) #3
  %115 = load ptr, ptr %12, align 8
  %116 = load i32, ptr %115, align 4, !tbaa !8
  call void @__kmpc_barrier(ptr @2, i32 %116)
  call void @llvm.lifetime.end.p0(i64 8, ptr %25) #3
  call void @llvm.lifetime.end.p0(i64 8, ptr %24) #3
  call void @llvm.lifetime.end.p0(i64 8, ptr %23) #3
  ret void
}