; Function Attrs: alwaysinline norecurse nounwind uwtable
define internal void @statevec_swapQubitAmpsDistributed.omp_outlined(ptr noalias noundef readonly captures(none) %0, ptr noalias readnone captures(none) %1, ptr noundef nonnull readonly align 8 captures(none) dereferenceable(8) %2, ptr noundef nonnull readonly align 8 captures(none) dereferenceable(8) %3, ptr noundef nonnull readonly align 4 captures(none) dereferenceable(4) %4, ptr noundef nonnull readonly align 4 captures(none) dereferenceable(4) %5, ptr noundef nonnull readonly align 8 captures(none) dereferenceable(8) %6, ptr noundef nonnull readonly align 8 captures(none) dereferenceable(8) %7, ptr noundef nonnull readonly align 8 captures(none) dereferenceable(8) %8, ptr noundef nonnull readonly align 8 captures(none) dereferenceable(8) %9, ptr noundef nonnull readonly align 8 captures(none) dereferenceable(8) %10) #3 {
  %12 = alloca i64, align 8
  %13 = alloca i64, align 8
  %14 = alloca i64, align 8
  %15 = alloca i32, align 4
  %16 = load i64, ptr %2, align 8, !tbaa !16
  %17 = icmp sgt i64 %16, 0
  %.pre = load i32, ptr %0, align 4, !tbaa !18
  br i1 %17, label %18, label %53

18:                                               ; preds = %11
  %19 = add nsw i64 %16, -1
  call void @llvm.lifetime.start.p0(i64 8, ptr nonnull %12) #4
  store i64 0, ptr %12, align 8, !tbaa !16
  call void @llvm.lifetime.start.p0(i64 8, ptr nonnull %13) #4
  store i64 %19, ptr %13, align 8, !tbaa !16
  call void @llvm.lifetime.start.p0(i64 8, ptr nonnull %14) #4
  store i64 1, ptr %14, align 8, !tbaa !16
  call void @llvm.lifetime.start.p0(i64 4, ptr nonnull %15) #4
  store i32 0, ptr %15, align 4, !tbaa !18
  call void @__kmpc_for_static_init_8(ptr nonnull @1, i32 %.pre, i32 34, ptr nonnull %15, ptr nonnull %12, ptr nonnull %13, ptr nonnull %14, i64 1, i64 1)
  %20 = load i64, ptr %13, align 8, !tbaa !16
  %21 = call i64 @llvm.smin.i64(i64 %20, i64 %19)
  store i64 %21, ptr %13, align 8, !tbaa !16
  %22 = load i64, ptr %12, align 8, !tbaa !16
  %.not29 = icmp sgt i64 %22, %21
  br i1 %.not29, label %._crit_edge, label %.lr.ph

.lr.ph:                                           ; preds = %18
  %23 = load i64, ptr %3, align 8, !tbaa !16
  %24 = load i32, ptr %4, align 4, !tbaa !18
  %25 = load i32, ptr %5, align 4, !tbaa !18
  %26 = zext i32 %24 to i64
  %27 = shl nuw i64 1, %26
  %28 = zext i32 %25 to i64
  %29 = shl nuw i64 1, %28
  %invariant.op = xor i64 %27, %29
  %30 = load i64, ptr %6, align 8
  %31 = load ptr, ptr %8, align 8
  %32 = load ptr, ptr %7, align 8
  %33 = load ptr, ptr %10, align 8
  %34 = load ptr, ptr %9, align 8
  br label %35

35:                                               ; preds = %.lr.ph, %51
  %.030 = phi i64 [ %22, %.lr.ph ], [ %52, %51 ]
  %36 = add nsw i64 %23, %.030
  %37 = and i64 %27, %36
  %38 = ashr i64 %37, %26
  %39 = trunc i64 %38 to i32
  %40 = and i64 %29, %36
  %41 = ashr i64 %40, %28
  %42 = trunc i64 %41 to i32
  %.not28 = icmp eq i32 %39, %42
  br i1 %.not28, label %51, label %43

43:                                               ; preds = %35
  %.reass = xor i64 %36, %invariant.op
  %44 = sub nsw i64 %.reass, %30
  %45 = getelementptr inbounds double, ptr %31, i64 %44
  %46 = load double, ptr %45, align 8, !tbaa !4
  %47 = getelementptr inbounds double, ptr %32, i64 %.030
  store double %46, ptr %47, align 8, !tbaa !4
  %48 = getelementptr inbounds double, ptr %33, i64 %44
  %49 = load double, ptr %48, align 8, !tbaa !4
  %50 = getelementptr inbounds double, ptr %34, i64 %.030
  store double %49, ptr %50, align 8, !tbaa !4
  br label %51

51:                                               ; preds = %43, %35
  %52 = add i64 %.030, 1
  %exitcond.not = icmp eq i64 %.030, %21
  br i1 %exitcond.not, label %._crit_edge, label %35

._crit_edge:                                      ; preds = %51, %18
  call void @__kmpc_for_static_fini(ptr nonnull @1, i32 %.pre)
  call void @llvm.lifetime.end.p0(i64 4, ptr nonnull %15) #4
  call void @llvm.lifetime.end.p0(i64 8, ptr nonnull %14) #4
  call void @llvm.lifetime.end.p0(i64 8, ptr nonnull %13) #4
  call void @llvm.lifetime.end.p0(i64 8, ptr nonnull %12) #4
  br label %53

53:                                               ; preds = %._crit_edge, %11
  call void @__kmpc_barrier(ptr nonnull @2, i32 %.pre)
  ret void
}